(dp1
S'activations'
p2
(S'softmax'
p3
S'tanh'
p4
S'sigmoid'
p5
tp6
sS'dropouts'
p7
(F0.25
F0.5
tp8
sS'inits'
p9
(S'glorot_uniform'
p10
S'glorot_normal'
p11
S'uniform'
p12
tp13
sS'batch_sizes'
p14
(I23
I46
I161
tp15
sS'hidden_nodes'
p16
(I32
I64
I128
tp17
s.